; Function Attrs: mustprogress nounwind uwtable
define dso_local void @_ZN4node7tracing11TracedValue9SetStringEPKcS3_(ptr noundef nonnull align 8 dereferenceable(42) %this, ptr noundef %name, ptr noundef %value) local_unnamed_addr #0 align 2 {
entry:
  %ref.tmp = alloca %"class.std::__cxx11::basic_string", align 8
  %first_item_.i.i = getelementptr inbounds i8, ptr %this, i64 40
  %0 = load i8, ptr %first_item_.i.i, align 8
  %1 = and i8 %0, 1
  %tobool.not.i.i = icmp eq i8 %1, 0
  br i1 %tobool.not.i.i, label %if.else.i.i, label %if.then.i.i

if.then.i.i:                                      ; preds = %entry
  store i8 0, ptr %first_item_.i.i, align 8
  br label %_ZN4node7tracing11TracedValue9WriteNameEPKc.exit

if.else.i.i:                                      ; preds = %entry
  %data_.i.i = getelementptr inbounds i8, ptr %this, i64 8
  %call.i.i = tail call noundef nonnull align 8 dereferenceable(32) ptr @_ZNSt7__cxx1112basic_stringIcSt11char_traitsIcESaIcEEpLEc(ptr noundef nonnull align 8 dereferenceable(32) %data_.i.i, i8 noundef signext 44) #10
  br label %_ZN4node7tracing11TracedValue9WriteNameEPKc.exit

_ZN4node7tracing11TracedValue9WriteNameEPKc.exit: ; preds = %if.then.i.i, %if.else.i.i
  %data_.i = getelementptr inbounds i8, ptr %this, i64 8
  %call.i = tail call noundef nonnull align 8 dereferenceable(32) ptr @_ZNSt7__cxx1112basic_stringIcSt11char_traitsIcESaIcEEpLEc(ptr noundef nonnull align 8 dereferenceable(32) %data_.i, i8 noundef signext 34) #10
  %call3.i = tail call noundef nonnull align 8 dereferenceable(32) ptr @_ZNSt7__cxx1112basic_stringIcSt11char_traitsIcESaIcEEpLEPKc(ptr noundef nonnull align 8 dereferenceable(32) %data_.i, ptr noundef %name) #10
  %call5.i = tail call noundef nonnull align 8 dereferenceable(32) ptr @_ZNSt7__cxx1112basic_stringIcSt11char_traitsIcESaIcEEpLEPKc(ptr noundef nonnull align 8 dereferenceable(32) %data_.i, ptr noundef nonnull @.str.3) #10
  call fastcc void @_ZN4node7tracing12_GLOBAL__N_112EscapeStringB5cxx11EPKc(ptr noalias nonnull align 8 %ref.tmp, ptr noundef %value)
  %call = call noundef nonnull align 8 dereferenceable(32) ptr @_ZNSt7__cxx1112basic_stringIcSt11char_traitsIcESaIcEEpLERKS4_(ptr noundef nonnull align 8 dereferenceable(32) %data_.i, ptr noundef nonnull align 8 dereferenceable(32) %ref.tmp) #10
  call void @_ZNSt7__cxx1112basic_stringIcSt11char_traitsIcESaIcEED1Ev(ptr noundef nonnull align 8 dereferenceable(32) %ref.tmp) #10
  ret void
}